target datalayout = "e-m:e-p270:32:32-p271:32:32-p272:64:64-i64:64-i128:128-f80:128-n8:16:32:64-S128"
target triple = "x86_64-pc-linux-gnu"

%struct._fvalue_t = type { ptr, %union.anon.1 }
%union.anon.1 = type { %struct._protocol_value_t }
%struct._protocol_value_t = type { ptr, i32, ptr, i8 }

@.str.63 = private unnamed_addr constant [5 x i8] c"True\00", align 1
@.str.64 = private unnamed_addr constant [6 x i8] c"False\00", align 1
@.str.65 = private unnamed_addr constant [2 x i8] c"1\00", align 1
@.str.66 = private unnamed_addr constant [2 x i8] c"0\00", align 1

; Function Attrs: null_pointer_is_valid sspstrong uwtable
define internal ptr @boolean_to_repr(ptr noundef %0, ptr noundef %1, i32 noundef %2, i32 noundef %3) #0 {
  %5 = alloca ptr, align 8
  %6 = alloca ptr, align 8
  %7 = alloca i32, align 4
  %8 = alloca i32, align 4
  %9 = alloca i8, align 1
  %10 = alloca ptr, align 8
  store ptr %0, ptr %5, align 8
  store ptr %1, ptr %6, align 8
  store i32 %2, ptr %7, align 4
  store i32 %3, ptr %8, align 4
  call void @llvm.lifetime.start.p0(i64 1, ptr %9) #10
  %11 = load ptr, ptr %6, align 8
  %12 = getelementptr inbounds nuw %struct._fvalue_t, ptr %11, i32 0, i32 1
  %13 = load i64, ptr %12, align 8
  %14 = icmp ne i64 %13, 0
  %15 = zext i1 %14 to i8
  store i8 %15, ptr %9, align 1
  call void @llvm.lifetime.start.p0(i64 8, ptr %10) #10
  store ptr null, ptr %10, align 8
  %16 = load i32, ptr %7, align 4
  switch i32 %16, label %25 [
    i32 1, label %17
    i32 0, label %17
    i32 2, label %21
    i32 3, label %21
  ]

17:                                               ; preds = %4, %4
  %18 = load i8, ptr %9, align 1, !range !6, !noundef !7
  %19 = trunc i8 %18 to i1
  %20 = select i1 %19, ptr @.str.63, ptr @.str.64
  store ptr %20, ptr %10, align 8
  br label %25

21:                                               ; preds = %4, %4
  %22 = load i8, ptr %9, align 1, !range !6, !noundef !7
  %23 = trunc i8 %22 to i1
  %24 = select i1 %23, ptr @.str.65, ptr @.str.66
  store ptr %24, ptr %10, align 8
  br label %25

25:                                               ; preds = %4, %21, %17
  %26 = load ptr, ptr %5, align 8
  %27 = load ptr, ptr %10, align 8
  %28 = call noalias ptr @wmem_strdup(ptr noundef %26, ptr noundef %27)
  call void @llvm.lifetime.end.p0(i64 8, ptr %10) #10
  call void @llvm.lifetime.end.p0(i64 1, ptr %9) #10
  ret ptr %28
}