; Function Attrs: null_pointer_is_valid sspstrong uwtable
define internal noalias ptr @boolean_to_repr(ptr noundef %0, ptr noundef readonly captures(none) %1, i32 noundef %2, i32 %3) #0 {
  %5 = getelementptr inbounds nuw i8, ptr %1, i64 8
  %6 = load i64, ptr %5, align 8
  %.not = icmp eq i64 %6, 0
  switch i32 %2, label %11 [
    i32 1, label %7
    i32 0, label %7
    i32 2, label %9
    i32 3, label %9
  ]

7:                                                ; preds = %4, %4
  %8 = select i1 %.not, ptr @.str.64, ptr @.str.63
  br label %11

9:                                                ; preds = %4, %4
  %10 = select i1 %.not, ptr @.str.66, ptr @.str.65
  br label %11

11:                                               ; preds = %9, %7, %4
  %.0 = phi ptr [ null, %4 ], [ %10, %9 ], [ %8, %7 ]
  %12 = tail call noalias ptr @wmem_strdup(ptr noundef %0, ptr noundef %.0)
  ret ptr %12
}